target datalayout = "e-m:e-p270:32:32-p271:32:32-p272:64:64-i64:64-i128:128-f80:128-n8:16:32:64-S128"
target triple = "x86_64-pc-linux-gnu"

; Function Attrs: nounwind uwtable
define internal i32 @H5P__fcrt_shmsg_index_types_enc(ptr noundef %0, ptr noundef %1, ptr noundef %2) #0 {
  %4 = alloca ptr, align 8
  %5 = alloca ptr, align 8
  %6 = alloca ptr, align 8
  %7 = alloca ptr, align 8
  %8 = alloca ptr, align 8
  %9 = alloca i32, align 4
  store ptr %0, ptr %4, align 8
  store ptr %1, ptr %5, align 8
  store ptr %2, ptr %6, align 8
  %10 = load ptr, ptr %4, align 8
  store ptr %10, ptr %7, align 8
  %11 = load ptr, ptr %5, align 8
  store ptr %11, ptr %8, align 8
  %12 = load ptr, ptr %8, align 8
  %13 = load ptr, ptr %12, align 8
  %14 = icmp ne ptr null, %13
  br i1 %14, label %15, label %72

15:                                               ; preds = %3
  %16 = load ptr, ptr %8, align 8
  %17 = load ptr, ptr %16, align 8
  %18 = getelementptr inbounds i8, ptr %17, i32 1
  store ptr %18, ptr %16, align 8
  store i8 4, ptr %17, align 1
  store i32 0, ptr %9, align 4
  br label %19

19:                                               ; preds = %68, %15
  %20 = load i32, ptr %9, align 4
  %21 = icmp ult i32 %20, 8
  br i1 %21, label %22, label %71

22:                                               ; preds = %19
  br label %23

23:                                               ; preds = %22
  br label %24

24:                                               ; preds = %23
  %25 = load ptr, ptr %7, align 8
  %26 = load i32, ptr %25, align 4
  %27 = and i32 %26, 255
  %28 = trunc i32 %27 to i8
  %29 = load ptr, ptr %8, align 8
  %30 = load ptr, ptr %29, align 8
  store i8 %28, ptr %30, align 1
  %31 = load ptr, ptr %8, align 8
  %32 = load ptr, ptr %31, align 8
  %33 = getelementptr inbounds i8, ptr %32, i32 1
  store ptr %33, ptr %31, align 8
  %34 = load ptr, ptr %7, align 8
  %35 = load i32, ptr %34, align 4
  %36 = lshr i32 %35, 8
  %37 = and i32 %36, 255
  %38 = trunc i32 %37 to i8
  %39 = load ptr, ptr %8, align 8
  %40 = load ptr, ptr %39, align 8
  store i8 %38, ptr %40, align 1
  %41 = load ptr, ptr %8, align 8
  %42 = load ptr, ptr %41, align 8
  %43 = getelementptr inbounds i8, ptr %42, i32 1
  store ptr %43, ptr %41, align 8
  %44 = load ptr, ptr %7, align 8
  %45 = load i32, ptr %44, align 4
  %46 = lshr i32 %45, 16
  %47 = and i32 %46, 255
  %48 = trunc i32 %47 to i8
  %49 = load ptr, ptr %8, align 8
  %50 = load ptr, ptr %49, align 8
  store i8 %48, ptr %50, align 1
  %51 = load ptr, ptr %8, align 8
  %52 = load ptr, ptr %51, align 8
  %53 = getelementptr inbounds i8, ptr %52, i32 1
  store ptr %53, ptr %51, align 8
  %54 = load ptr, ptr %7, align 8
  %55 = load i32, ptr %54, align 4
  %56 = lshr i32 %55, 24
  %57 = and i32 %56, 255
  %58 = trunc i32 %57 to i8
  %59 = load ptr, ptr %8, align 8
  %60 = load ptr, ptr %59, align 8
  store i8 %58, ptr %60, align 1
  %61 = load ptr, ptr %8, align 8
  %62 = load ptr, ptr %61, align 8
  %63 = getelementptr inbounds i8, ptr %62, i32 1
  store ptr %63, ptr %61, align 8
  br label %64

64:                                               ; preds = %24
  br label %65

65:                                               ; preds = %64
  %66 = load ptr, ptr %7, align 8
  %67 = getelementptr inbounds i32, ptr %66, i32 1
  store ptr %67, ptr %7, align 8
  br label %68

68:                                               ; preds = %65
  %69 = load i32, ptr %9, align 4
  %70 = add i32 %69, 1
  store i32 %70, ptr %9, align 4
  br label %19

71:                                               ; preds = %19
  br label %72

72:                                               ; preds = %71, %3
  %73 = load ptr, ptr %6, align 8
  %74 = load i64, ptr %73, align 8
  %75 = add i64 %74, 33
  store i64 %75, ptr %73, align 8
  ret i32 0
}